target datalayout = "e-m:e-p270:32:32-p271:32:32-p272:64:64-i64:64-i128:128-f80:128-n8:16:32:64-S128"
target triple = "x86_64-pc-linux-gnu"

%struct.anon = type { double, double, double, double, double, double, double, double }
%struct._generic_N_Vector = type { ptr, ptr, ptr }
%struct._N_VectorContent_Serial = type { i64, i32, ptr }

; Function Attrs: nounwind uwtable
define dso_local void @force(ptr noundef %0, ptr noundef %1, ptr noundef %2) #0 {
  %4 = alloca ptr, align 8
  %5 = alloca ptr, align 8
  %6 = alloca ptr, align 8
  %7 = alloca double, align 8
  %8 = alloca double, align 8
  %9 = alloca double, align 8
  %10 = alloca double, align 8
  %11 = alloca double, align 8
  %12 = alloca double, align 8
  %13 = alloca double, align 8
  %14 = alloca double, align 8
  %15 = alloca double, align 8
  %16 = alloca double, align 8
  %17 = alloca double, align 8
  %18 = alloca double, align 8
  %19 = alloca double, align 8
  %20 = alloca double, align 8
  %21 = alloca double, align 8
  %22 = alloca double, align 8
  %23 = alloca double, align 8
  %24 = alloca double, align 8
  %25 = alloca double, align 8
  %26 = alloca double, align 8
  %27 = alloca double, align 8
  %28 = alloca double, align 8
  store ptr %0, ptr %4, align 8, !tbaa !26
  store ptr %1, ptr %5, align 8, !tbaa !42
  store ptr %2, ptr %6, align 8, !tbaa !13
  call void @llvm.lifetime.start.p0(i64 8, ptr %7) #6
  call void @llvm.lifetime.start.p0(i64 8, ptr %8) #6
  call void @llvm.lifetime.start.p0(i64 8, ptr %9) #6
  call void @llvm.lifetime.start.p0(i64 8, ptr %10) #6
  call void @llvm.lifetime.start.p0(i64 8, ptr %11) #6
  call void @llvm.lifetime.start.p0(i64 8, ptr %12) #6
  call void @llvm.lifetime.start.p0(i64 8, ptr %13) #6
  call void @llvm.lifetime.start.p0(i64 8, ptr %14) #6
  call void @llvm.lifetime.start.p0(i64 8, ptr %15) #6
  call void @llvm.lifetime.start.p0(i64 8, ptr %16) #6
  call void @llvm.lifetime.start.p0(i64 8, ptr %17) #6
  call void @llvm.lifetime.start.p0(i64 8, ptr %18) #6
  call void @llvm.lifetime.start.p0(i64 8, ptr %19) #6
  call void @llvm.lifetime.start.p0(i64 8, ptr %20) #6
  call void @llvm.lifetime.start.p0(i64 8, ptr %21) #6
  call void @llvm.lifetime.start.p0(i64 8, ptr %22) #6
  call void @llvm.lifetime.start.p0(i64 8, ptr %23) #6
  call void @llvm.lifetime.start.p0(i64 8, ptr %24) #6
  call void @llvm.lifetime.start.p0(i64 8, ptr %25) #6
  call void @llvm.lifetime.start.p0(i64 8, ptr %26) #6
  call void @llvm.lifetime.start.p0(i64 8, ptr %27) #6
  call void @llvm.lifetime.start.p0(i64 8, ptr %28) #6
  %29 = load ptr, ptr %6, align 8, !tbaa !13
  %30 = getelementptr inbounds nuw %struct.anon, ptr %29, i32 0, i32 0
  %31 = load double, ptr %30, align 8, !tbaa !14
  store double %31, ptr %7, align 8, !tbaa !35
  %32 = load ptr, ptr %6, align 8, !tbaa !13
  %33 = getelementptr inbounds nuw %struct.anon, ptr %32, i32 0, i32 4
  %34 = load double, ptr %33, align 8, !tbaa !20
  store double %34, ptr %8, align 8, !tbaa !35
  %35 = load ptr, ptr %6, align 8, !tbaa !13
  %36 = getelementptr inbounds nuw %struct.anon, ptr %35, i32 0, i32 5
  %37 = load double, ptr %36, align 8, !tbaa !21
  store double %37, ptr %9, align 8, !tbaa !35
  %38 = load ptr, ptr %6, align 8, !tbaa !13
  %39 = getelementptr inbounds nuw %struct.anon, ptr %38, i32 0, i32 6
  %40 = load double, ptr %39, align 8, !tbaa !22
  store double %40, ptr %10, align 8, !tbaa !35
  %41 = load ptr, ptr %6, align 8, !tbaa !13
  %42 = getelementptr inbounds nuw %struct.anon, ptr %41, i32 0, i32 7
  %43 = load double, ptr %42, align 8, !tbaa !23
  store double %43, ptr %11, align 8, !tbaa !35
  %44 = load ptr, ptr %4, align 8, !tbaa !26
  %45 = getelementptr inbounds nuw %struct._generic_N_Vector, ptr %44, i32 0, i32 0
  %46 = load ptr, ptr %45, align 8, !tbaa !28
  %47 = getelementptr inbounds nuw %struct._N_VectorContent_Serial, ptr %46, i32 0, i32 2
  %48 = load ptr, ptr %47, align 8, !tbaa !31
  %49 = getelementptr inbounds double, ptr %48, i64 0
  %50 = load double, ptr %49, align 8, !tbaa !35
  store double %50, ptr %12, align 8, !tbaa !35
  %51 = load ptr, ptr %4, align 8, !tbaa !26
  %52 = getelementptr inbounds nuw %struct._generic_N_Vector, ptr %51, i32 0, i32 0
  %53 = load ptr, ptr %52, align 8, !tbaa !28
  %54 = getelementptr inbounds nuw %struct._N_VectorContent_Serial, ptr %53, i32 0, i32 2
  %55 = load ptr, ptr %54, align 8, !tbaa !31
  %56 = getelementptr inbounds double, ptr %55, i64 1
  %57 = load double, ptr %56, align 8, !tbaa !35
  store double %57, ptr %13, align 8, !tbaa !35
  %58 = load ptr, ptr %4, align 8, !tbaa !26
  %59 = getelementptr inbounds nuw %struct._generic_N_Vector, ptr %58, i32 0, i32 0
  %60 = load ptr, ptr %59, align 8, !tbaa !28
  %61 = getelementptr inbounds nuw %struct._N_VectorContent_Serial, ptr %60, i32 0, i32 2
  %62 = load ptr, ptr %61, align 8, !tbaa !31
  %63 = getelementptr inbounds double, ptr %62, i64 2
  %64 = load double, ptr %63, align 8, !tbaa !35
  store double %64, ptr %14, align 8, !tbaa !35
  %65 = load ptr, ptr %4, align 8, !tbaa !26
  %66 = getelementptr inbounds nuw %struct._generic_N_Vector, ptr %65, i32 0, i32 0
  %67 = load ptr, ptr %66, align 8, !tbaa !28
  %68 = getelementptr inbounds nuw %struct._N_VectorContent_Serial, ptr %67, i32 0, i32 2
  %69 = load ptr, ptr %68, align 8, !tbaa !31
  %70 = getelementptr inbounds double, ptr %69, i64 3
  %71 = load double, ptr %70, align 8, !tbaa !35
  store double %71, ptr %15, align 8, !tbaa !35
  %72 = load ptr, ptr %4, align 8, !tbaa !26
  %73 = getelementptr inbounds nuw %struct._generic_N_Vector, ptr %72, i32 0, i32 0
  %74 = load ptr, ptr %73, align 8, !tbaa !28
  %75 = getelementptr inbounds nuw %struct._N_VectorContent_Serial, ptr %74, i32 0, i32 2
  %76 = load ptr, ptr %75, align 8, !tbaa !31
  %77 = getelementptr inbounds double, ptr %76, i64 4
  %78 = load double, ptr %77, align 8, !tbaa !35
  store double %78, ptr %16, align 8, !tbaa !35
  %79 = load ptr, ptr %4, align 8, !tbaa !26
  %80 = getelementptr inbounds nuw %struct._generic_N_Vector, ptr %79, i32 0, i32 0
  %81 = load ptr, ptr %80, align 8, !tbaa !28
  %82 = getelementptr inbounds nuw %struct._N_VectorContent_Serial, ptr %81, i32 0, i32 2
  %83 = load ptr, ptr %82, align 8, !tbaa !31
  %84 = getelementptr inbounds double, ptr %83, i64 5
  %85 = load double, ptr %84, align 8, !tbaa !35
  store double %85, ptr %17, align 8, !tbaa !35
  %86 = load double, ptr %12, align 8, !tbaa !35
  %87 = call double @sin(double noundef %86) #6, !tbaa !11
  store double %87, ptr %18, align 8, !tbaa !35
  %88 = load double, ptr %12, align 8, !tbaa !35
  %89 = call double @cos(double noundef %88) #6, !tbaa !11
  store double %89, ptr %19, align 8, !tbaa !35
  %90 = load double, ptr %14, align 8, !tbaa !35
  %91 = call double @sin(double noundef %90) #6, !tbaa !11
  store double %91, ptr %20, align 8, !tbaa !35
  %92 = load double, ptr %14, align 8, !tbaa !35
  %93 = call double @cos(double noundef %92) #6, !tbaa !11
  store double %93, ptr %21, align 8, !tbaa !35
  %94 = load double, ptr %20, align 8, !tbaa !35
  %95 = load double, ptr %19, align 8, !tbaa !35
  %96 = load double, ptr %21, align 8, !tbaa !35
  %97 = load double, ptr %18, align 8, !tbaa !35
  %98 = fmul double %96, %97
  %99 = fneg double %98
  %100 = call double @llvm.fmuladd.f64(double %94, double %95, double %99)
  store double %100, ptr %22, align 8, !tbaa !35
  %101 = load double, ptr %21, align 8, !tbaa !35
  %102 = load double, ptr %19, align 8, !tbaa !35
  %103 = load double, ptr %20, align 8, !tbaa !35
  %104 = load double, ptr %18, align 8, !tbaa !35
  %105 = fmul double %103, %104
  %106 = call double @llvm.fmuladd.f64(double %101, double %102, double %105)
  store double %106, ptr %23, align 8, !tbaa !35
  %107 = load double, ptr %13, align 8, !tbaa !35
  %108 = load double, ptr %13, align 8, !tbaa !35
  %109 = load double, ptr %13, align 8, !tbaa !35
  %110 = load double, ptr %21, align 8, !tbaa !35
  %111 = load double, ptr %7, align 8, !tbaa !35
  %112 = load double, ptr %19, align 8, !tbaa !35
  %113 = call double @llvm.fmuladd.f64(double %111, double %112, double %110)
  %114 = fmul double %109, %113
  %115 = fneg double %114
  %116 = call double @llvm.fmuladd.f64(double %107, double %108, double %115)
  %117 = load double, ptr %7, align 8, !tbaa !35
  %118 = load double, ptr %7, align 8, !tbaa !35
  %119 = call double @llvm.fmuladd.f64(double %117, double %118, double 1.000000e+00)
  %120 = fdiv double %119, 4.000000e+00
  %121 = fadd double %116, %120
  %122 = load double, ptr %7, align 8, !tbaa !35
  %123 = load double, ptr %23, align 8, !tbaa !35
  %124 = fmul double %122, %123
  %125 = fdiv double %124, 2.000000e+00
  %126 = fadd double %121, %125
  store double %126, ptr %24, align 8, !tbaa !35
  %127 = load double, ptr %24, align 8, !tbaa !35
  %128 = call double @sqrt(double noundef %127) #6, !tbaa !11
  store double %128, ptr %25, align 8, !tbaa !35
  %129 = load double, ptr %13, align 8, !tbaa !35
  %130 = fmul double 2.000000e+00, %129
  %131 = load double, ptr %16, align 8, !tbaa !35
  %132 = load double, ptr %16, align 8, !tbaa !35
  %133 = load double, ptr %21, align 8, !tbaa !35
  %134 = load double, ptr %7, align 8, !tbaa !35
  %135 = load double, ptr %19, align 8, !tbaa !35
  %136 = call double @llvm.fmuladd.f64(double %134, double %135, double %133)
  %137 = fmul double %132, %136
  %138 = fneg double %137
  %139 = call double @llvm.fmuladd.f64(double %130, double %131, double %138)
  %140 = load double, ptr %13, align 8, !tbaa !35
  %141 = load double, ptr %20, align 8, !tbaa !35
  %142 = load double, ptr %17, align 8, !tbaa !35
  %143 = load double, ptr %7, align 8, !tbaa !35
  %144 = load double, ptr %18, align 8, !tbaa !35
  %145 = fmul double %143, %144
  %146 = load double, ptr %15, align 8, !tbaa !35
  %147 = fmul double %145, %146
  %148 = call double @llvm.fmuladd.f64(double %141, double %142, double %147)
  %149 = call double @llvm.fmuladd.f64(double %140, double %148, double %139)
  %150 = load double, ptr %7, align 8, !tbaa !35
  %151 = load double, ptr %22, align 8, !tbaa !35
  %152 = fmul double %150, %151
  %153 = load double, ptr %17, align 8, !tbaa !35
  %154 = load double, ptr %15, align 8, !tbaa !35
  %155 = fsub double %153, %154
  %156 = fmul double %152, %155
  %157 = fdiv double %156, 2.000000e+00
  %158 = fsub double %149, %157
  store double %158, ptr %26, align 8, !tbaa !35
  %159 = load double, ptr %25, align 8, !tbaa !35
  %160 = fmul double 2.000000e+00, %159
  %161 = load double, ptr %26, align 8, !tbaa !35
  %162 = fdiv double %161, %160
  store double %162, ptr %26, align 8, !tbaa !35
  %163 = load double, ptr %8, align 8, !tbaa !35
  %164 = load double, ptr %25, align 8, !tbaa !35
  %165 = load double, ptr %10, align 8, !tbaa !35
  %166 = fsub double %164, %165
  %167 = load double, ptr %9, align 8, !tbaa !35
  %168 = load double, ptr %26, align 8, !tbaa !35
  %169 = fmul double %167, %168
  %170 = call double @llvm.fmuladd.f64(double %163, double %166, double %169)
  store double %170, ptr %27, align 8, !tbaa !35
  %171 = load double, ptr %27, align 8, !tbaa !35
  %172 = load double, ptr %25, align 8, !tbaa !35
  %173 = fdiv double %171, %172
  store double %173, ptr %28, align 8, !tbaa !35
  %174 = load double, ptr %28, align 8, !tbaa !35
  %175 = fneg double %174
  %176 = load double, ptr %7, align 8, !tbaa !35
  %177 = fmul double %175, %176
  %178 = load double, ptr %22, align 8, !tbaa !35
  %179 = fdiv double %178, 2.000000e+00
  %180 = load double, ptr %13, align 8, !tbaa !35
  %181 = load double, ptr %18, align 8, !tbaa !35
  %182 = call double @llvm.fmuladd.f64(double %180, double %181, double %179)
  %183 = fmul double %177, %182
  %184 = fdiv double %183, 2.000000e+00
  %185 = load ptr, ptr %5, align 8, !tbaa !42
  %186 = getelementptr inbounds double, ptr %185, i64 0
  store double %184, ptr %186, align 8, !tbaa !35
  %187 = load double, ptr %28, align 8, !tbaa !35
  %188 = load double, ptr %21, align 8, !tbaa !35
  %189 = fdiv double %188, 2.000000e+00
  %190 = load double, ptr %13, align 8, !tbaa !35
  %191 = fsub double %189, %190
  %192 = load double, ptr %7, align 8, !tbaa !35
  %193 = load double, ptr %19, align 8, !tbaa !35
  %194 = fmul double %192, %193
  %195 = fdiv double %194, 2.000000e+00
  %196 = fadd double %191, %195
  %197 = load double, ptr %11, align 8, !tbaa !35
  %198 = call double @llvm.fmuladd.f64(double %187, double %196, double %197)
  %199 = load ptr, ptr %5, align 8, !tbaa !42
  %200 = getelementptr inbounds double, ptr %199, i64 1
  store double %198, ptr %200, align 8, !tbaa !35
  %201 = load double, ptr %28, align 8, !tbaa !35
  %202 = fneg double %201
  %203 = load double, ptr %13, align 8, !tbaa !35
  %204 = load double, ptr %20, align 8, !tbaa !35
  %205 = load double, ptr %7, align 8, !tbaa !35
  %206 = load double, ptr %22, align 8, !tbaa !35
  %207 = fmul double %205, %206
  %208 = fdiv double %207, 2.000000e+00
  %209 = fneg double %208
  %210 = call double @llvm.fmuladd.f64(double %203, double %204, double %209)
  %211 = fmul double %202, %210
  %212 = fdiv double %211, 2.000000e+00
  %213 = load double, ptr %11, align 8, !tbaa !35
  %214 = load double, ptr %20, align 8, !tbaa !35
  %215 = fneg double %213
  %216 = call double @llvm.fmuladd.f64(double %215, double %214, double %212)
  %217 = load ptr, ptr %5, align 8, !tbaa !42
  %218 = getelementptr inbounds double, ptr %217, i64 2
  store double %216, ptr %218, align 8, !tbaa !35
  call void @llvm.lifetime.end.p0(i64 8, ptr %28) #6
  call void @llvm.lifetime.end.p0(i64 8, ptr %27) #6
  call void @llvm.lifetime.end.p0(i64 8, ptr %26) #6
  call void @llvm.lifetime.end.p0(i64 8, ptr %25) #6
  call void @llvm.lifetime.end.p0(i64 8, ptr %24) #6
  call void @llvm.lifetime.end.p0(i64 8, ptr %23) #6
  call void @llvm.lifetime.end.p0(i64 8, ptr %22) #6
  call void @llvm.lifetime.end.p0(i64 8, ptr %21) #6
  call void @llvm.lifetime.end.p0(i64 8, ptr %20) #6
  call void @llvm.lifetime.end.p0(i64 8, ptr %19) #6
  call void @llvm.lifetime.end.p0(i64 8, ptr %18) #6
  call void @llvm.lifetime.end.p0(i64 8, ptr %17) #6
  call void @llvm.lifetime.end.p0(i64 8, ptr %16) #6
  call void @llvm.lifetime.end.p0(i64 8, ptr %15) #6
  call void @llvm.lifetime.end.p0(i64 8, ptr %14) #6
  call void @llvm.lifetime.end.p0(i64 8, ptr %13) #6
  call void @llvm.lifetime.end.p0(i64 8, ptr %12) #6
  call void @llvm.lifetime.end.p0(i64 8, ptr %11) #6
  call void @llvm.lifetime.end.p0(i64 8, ptr %10) #6
  call void @llvm.lifetime.end.p0(i64 8, ptr %9) #6
  call void @llvm.lifetime.end.p0(i64 8, ptr %8) #6
  call void @llvm.lifetime.end.p0(i64 8, ptr %7) #6
  ret void
}

; Function Attrs: nounwind uwtable
define dso_local void @setIC(ptr noundef %0, ptr noundef %1, ptr noundef %2) #0 {
  %4 = alloca ptr, align 8
  %5 = alloca ptr, align 8
  %6 = alloca ptr, align 8
  %7 = alloca double, align 8
  %8 = alloca double, align 8
  %9 = alloca double, align 8
  %10 = alloca double, align 8
  %11 = alloca double, align 8
  %12 = alloca double, align 8
  %13 = alloca double, align 8
  %14 = alloca double, align 8
  %15 = alloca [3 x double], align 16
  store ptr %0, ptr %4, align 8, !tbaa !26
  store ptr %1, ptr %5, align 8, !tbaa !26
  store ptr %2, ptr %6, align 8, !tbaa !13
  call void @llvm.lifetime.start.p0(i64 8, ptr %7) #6
  call void @llvm.lifetime.start.p0(i64 8, ptr %8) #6
  call void @llvm.lifetime.start.p0(i64 8, ptr %9) #6
  call void @llvm.lifetime.start.p0(i64 8, ptr %10) #6
  call void @llvm.lifetime.start.p0(i64 8, ptr %11) #6
  call void @llvm.lifetime.start.p0(i64 8, ptr %12) #6
  call void @llvm.lifetime.start.p0(i64 8, ptr %13) #6
  call void @llvm.lifetime.start.p0(i64 8, ptr %14) #6
  call void @llvm.lifetime.start.p0(i64 24, ptr %15) #6
  %16 = load ptr, ptr %4, align 8, !tbaa !26
  call void @N_VConst(double noundef 0.000000e+00, ptr noundef %16)
  %17 = load ptr, ptr %5, align 8, !tbaa !26
  call void @N_VConst(double noundef 0.000000e+00, ptr noundef %17)
  %18 = call double @atan(double noundef 1.000000e+00) #6, !tbaa !11
  %19 = fmul double 4.000000e+00, %18
  store double %19, ptr %7, align 8, !tbaa !35
  %20 = load ptr, ptr %6, align 8, !tbaa !13
  %21 = getelementptr inbounds nuw %struct.anon, ptr %20, i32 0, i32 0
  %22 = load double, ptr %21, align 8, !tbaa !14
  store double %22, ptr %8, align 8, !tbaa !35
  %23 = load ptr, ptr %6, align 8, !tbaa !13
  %24 = getelementptr inbounds nuw %struct.anon, ptr %23, i32 0, i32 1
  %25 = load double, ptr %24, align 8, !tbaa !17
  store double %25, ptr %9, align 8, !tbaa !35
  %26 = load ptr, ptr %6, align 8, !tbaa !13
  %27 = getelementptr inbounds nuw %struct.anon, ptr %26, i32 0, i32 3
  %28 = load double, ptr %27, align 8, !tbaa !18
  store double %28, ptr %10, align 8, !tbaa !35
  %29 = load ptr, ptr %6, align 8, !tbaa !13
  %30 = getelementptr inbounds nuw %struct.anon, ptr %29, i32 0, i32 2
  %31 = load double, ptr %30, align 8, !tbaa !19
  store double %31, ptr %11, align 8, !tbaa !35
  %32 = load double, ptr %7, align 8, !tbaa !35
  %33 = fdiv double %32, 2.000000e+00
  store double %33, ptr %12, align 8, !tbaa !35
  %34 = load double, ptr %8, align 8, !tbaa !35
  %35 = fneg double %34
  %36 = call double @asin(double noundef %35) #6, !tbaa !11
  store double %36, ptr %13, align 8, !tbaa !35
  %37 = load double, ptr %13, align 8, !tbaa !35
  %38 = call double @cos(double noundef %37) #6, !tbaa !11
  store double %38, ptr %14, align 8, !tbaa !35
  %39 = load double, ptr %12, align 8, !tbaa !35
  %40 = load ptr, ptr %4, align 8, !tbaa !26
  %41 = getelementptr inbounds nuw %struct._generic_N_Vector, ptr %40, i32 0, i32 0
  %42 = load ptr, ptr %41, align 8, !tbaa !28
  %43 = getelementptr inbounds nuw %struct._N_VectorContent_Serial, ptr %42, i32 0, i32 2
  %44 = load ptr, ptr %43, align 8, !tbaa !31
  %45 = getelementptr inbounds double, ptr %44, i64 0
  store double %39, ptr %45, align 8, !tbaa !35
  %46 = load double, ptr %14, align 8, !tbaa !35
  %47 = load ptr, ptr %4, align 8, !tbaa !26
  %48 = getelementptr inbounds nuw %struct._generic_N_Vector, ptr %47, i32 0, i32 0
  %49 = load ptr, ptr %48, align 8, !tbaa !28
  %50 = getelementptr inbounds nuw %struct._N_VectorContent_Serial, ptr %49, i32 0, i32 2
  %51 = load ptr, ptr %50, align 8, !tbaa !31
  %52 = getelementptr inbounds double, ptr %51, i64 1
  store double %46, ptr %52, align 8, !tbaa !35
  %53 = load double, ptr %13, align 8, !tbaa !35
  %54 = load ptr, ptr %4, align 8, !tbaa !26
  %55 = getelementptr inbounds nuw %struct._generic_N_Vector, ptr %54, i32 0, i32 0
  %56 = load ptr, ptr %55, align 8, !tbaa !28
  %57 = getelementptr inbounds nuw %struct._N_VectorContent_Serial, ptr %56, i32 0, i32 2
  %58 = load ptr, ptr %57, align 8, !tbaa !31
  %59 = getelementptr inbounds double, ptr %58, i64 2
  store double %53, ptr %59, align 8, !tbaa !35
  %60 = load ptr, ptr %4, align 8, !tbaa !26
  %61 = getelementptr inbounds [3 x double], ptr %15, i64 0, i64 0
  %62 = load ptr, ptr %6, align 8, !tbaa !13
  call void @force(ptr noundef %60, ptr noundef %61, ptr noundef %62)
  %63 = getelementptr inbounds [3 x double], ptr %15, i64 0, i64 0
  %64 = load double, ptr %63, align 16, !tbaa !35
  %65 = load double, ptr %9, align 8, !tbaa !35
  %66 = fdiv double %64, %65
  %67 = load ptr, ptr %5, align 8, !tbaa !26
  %68 = getelementptr inbounds nuw %struct._generic_N_Vector, ptr %67, i32 0, i32 0
  %69 = load ptr, ptr %68, align 8, !tbaa !28
  %70 = getelementptr inbounds nuw %struct._N_VectorContent_Serial, ptr %69, i32 0, i32 2
  %71 = load ptr, ptr %70, align 8, !tbaa !31
  %72 = getelementptr inbounds double, ptr %71, i64 3
  store double %66, ptr %72, align 8, !tbaa !35
  %73 = getelementptr inbounds [3 x double], ptr %15, i64 0, i64 1
  %74 = load double, ptr %73, align 8, !tbaa !35
  %75 = load double, ptr %10, align 8, !tbaa !35
  %76 = fdiv double %74, %75
  %77 = load ptr, ptr %5, align 8, !tbaa !26
  %78 = getelementptr inbounds nuw %struct._generic_N_Vector, ptr %77, i32 0, i32 0
  %79 = load ptr, ptr %78, align 8, !tbaa !28
  %80 = getelementptr inbounds nuw %struct._N_VectorContent_Serial, ptr %79, i32 0, i32 2
  %81 = load ptr, ptr %80, align 8, !tbaa !31
  %82 = getelementptr inbounds double, ptr %81, i64 4
  store double %76, ptr %82, align 8, !tbaa !35
  %83 = getelementptr inbounds [3 x double], ptr %15, i64 0, i64 2
  %84 = load double, ptr %83, align 16, !tbaa !35
  %85 = load double, ptr %11, align 8, !tbaa !35
  %86 = fdiv double %84, %85
  %87 = load ptr, ptr %5, align 8, !tbaa !26
  %88 = getelementptr inbounds nuw %struct._generic_N_Vector, ptr %87, i32 0, i32 0
  %89 = load ptr, ptr %88, align 8, !tbaa !28
  %90 = getelementptr inbounds nuw %struct._N_VectorContent_Serial, ptr %89, i32 0, i32 2
  %91 = load ptr, ptr %90, align 8, !tbaa !31
  %92 = getelementptr inbounds double, ptr %91, i64 5
  store double %86, ptr %92, align 8, !tbaa !35
  call void @llvm.lifetime.end.p0(i64 24, ptr %15) #6
  call void @llvm.lifetime.end.p0(i64 8, ptr %14) #6
  call void @llvm.lifetime.end.p0(i64 8, ptr %13) #6
  call void @llvm.lifetime.end.p0(i64 8, ptr %12) #6
  call void @llvm.lifetime.end.p0(i64 8, ptr %11) #6
  call void @llvm.lifetime.end.p0(i64 8, ptr %10) #6
  call void @llvm.lifetime.end.p0(i64 8, ptr %9) #6
  call void @llvm.lifetime.end.p0(i64 8, ptr %8) #6
  call void @llvm.lifetime.end.p0(i64 8, ptr %7) #6
  ret void
}