; Function Attrs: nounwind uwtable
define dso_local void @setIC(ptr noundef %0, ptr noundef %1, ptr noundef readonly captures(none) %2) local_unnamed_addr #0 {
  tail call void @N_VConst(double noundef 0.000000e+00, ptr noundef %0) #12
  tail call void @N_VConst(double noundef 0.000000e+00, ptr noundef %1) #12
  %4 = load double, ptr %2, align 8, !tbaa !9
  %5 = getelementptr inbounds nuw i8, ptr %2, i64 8
  %6 = load double, ptr %5, align 8, !tbaa !12
  %7 = getelementptr inbounds nuw i8, ptr %2, i64 24
  %8 = load double, ptr %7, align 8, !tbaa !13
  %9 = getelementptr inbounds nuw i8, ptr %2, i64 16
  %10 = load double, ptr %9, align 8, !tbaa !14
  %11 = fneg double %4
  %12 = tail call double @asin(double noundef %11) #12, !tbaa !32
  %13 = tail call double @cos(double noundef %12) #12, !tbaa !32
  %14 = load ptr, ptr %0, align 8, !tbaa !21
  %15 = getelementptr inbounds nuw i8, ptr %14, i64 16
  %16 = load ptr, ptr %15, align 8, !tbaa !24
  store double 0x3FF921FB54442D18, ptr %16, align 8, !tbaa !30
  %17 = getelementptr inbounds nuw i8, ptr %16, i64 8
  store double %13, ptr %17, align 8, !tbaa !30
  %18 = getelementptr inbounds nuw i8, ptr %16, i64 16
  store double %12, ptr %18, align 8, !tbaa !30
  %19 = load double, ptr %2, align 8, !tbaa !9
  %20 = getelementptr inbounds nuw i8, ptr %2, i64 32
  %21 = load double, ptr %20, align 8, !tbaa !15
  %22 = getelementptr inbounds nuw i8, ptr %2, i64 40
  %23 = load double, ptr %22, align 8, !tbaa !16
  %24 = getelementptr inbounds nuw i8, ptr %2, i64 48
  %25 = load double, ptr %24, align 8, !tbaa !17
  %26 = getelementptr inbounds nuw i8, ptr %2, i64 56
  %27 = load double, ptr %26, align 8, !tbaa !18
  %28 = getelementptr inbounds nuw i8, ptr %16, i64 24
  %29 = load double, ptr %28, align 8, !tbaa !30
  %30 = getelementptr inbounds nuw i8, ptr %16, i64 32
  %31 = load double, ptr %30, align 8, !tbaa !30
  %32 = getelementptr inbounds nuw i8, ptr %16, i64 40
  %33 = load double, ptr %32, align 8, !tbaa !30
  %34 = tail call double @sin(double noundef %12) #12, !tbaa !32
  %35 = tail call double @cos(double noundef %12) #12, !tbaa !32
  %36 = fneg double %35
  %37 = tail call double @llvm.fmuladd.f64(double %34, double 0x3C91A62633145C07, double %36)
  %38 = tail call double @llvm.fmuladd.f64(double %35, double 0x3C91A62633145C07, double %34)
  %39 = tail call double @llvm.fmuladd.f64(double %19, double 0x3C91A62633145C07, double %35)
  %40 = fneg double %39
  %41 = fmul double %13, %40
  %42 = tail call double @llvm.fmuladd.f64(double %13, double %13, double %41)
  %43 = tail call double @llvm.fmuladd.f64(double %19, double %19, double 1.000000e+00)
  %44 = fmul double %43, 2.500000e-01
  %45 = fadd double %44, %42
  %46 = fmul double %19, %38
  %47 = fmul double %46, 5.000000e-01
  %48 = fadd double %47, %45
  %49 = tail call double @sqrt(double noundef %48) #12, !tbaa !32
  %50 = fmul double %13, 2.000000e+00
  %51 = fmul double %31, %40
  %52 = tail call double @llvm.fmuladd.f64(double %50, double %31, double %51)
  %53 = fmul double %19, %29
  %54 = tail call double @llvm.fmuladd.f64(double %34, double %33, double %53)
  %55 = tail call double @llvm.fmuladd.f64(double %13, double %54, double %52)
  %56 = fmul double %19, %37
  %57 = fsub double %33, %29
  %58 = fmul double %57, %56
  %59 = fmul double %58, 5.000000e-01
  %60 = fsub double %55, %59
  %61 = fmul double %49, 2.000000e+00
  %62 = fdiv double %60, %61
  %63 = fsub double %49, %25
  %64 = fmul double %23, %62
  %65 = tail call double @llvm.fmuladd.f64(double %21, double %63, double %64)
  %66 = fdiv double %65, %49
  %67 = fneg double %66
  %68 = fmul double %19, %67
  %69 = fmul double %37, 5.000000e-01
  %70 = fadd double %13, %69
  %71 = fmul double %70, %68
  %72 = fmul double %71, 5.000000e-01
  %73 = fmul double %35, 5.000000e-01
  %74 = fsub double %73, %13
  %75 = fmul double %19, 0x3C91A62633145C07
  %76 = fmul double %75, 5.000000e-01
  %77 = fadd double %76, %74
  %78 = tail call double @llvm.fmuladd.f64(double %66, double %77, double %27)
  %79 = fmul double %56, -5.000000e-01
  %80 = tail call double @llvm.fmuladd.f64(double %13, double %34, double %79)
  %81 = fmul double %80, %67
  %82 = fmul double %81, 5.000000e-01
  %83 = fneg double %27
  %84 = tail call double @llvm.fmuladd.f64(double %83, double %34, double %82)
  %85 = fdiv double %72, %6
  %86 = load ptr, ptr %1, align 8, !tbaa !21
  %87 = getelementptr inbounds nuw i8, ptr %86, i64 16
  %88 = load ptr, ptr %87, align 8, !tbaa !24
  %89 = getelementptr inbounds nuw i8, ptr %88, i64 24
  store double %85, ptr %89, align 8, !tbaa !30
  %90 = fdiv double %78, %8
  %91 = getelementptr inbounds nuw i8, ptr %88, i64 32
  store double %90, ptr %91, align 8, !tbaa !30
  %92 = fdiv double %84, %10
  %93 = getelementptr inbounds nuw i8, ptr %88, i64 40
  store double %92, ptr %93, align 8, !tbaa !30
  ret void
}